; Function Attrs: mustprogress nounwind uwtable
define void @_ZN6casadi10IdasMemoryD2Ev(ptr noundef nonnull align 8 dereferenceable(752) %0) unnamed_addr #5 align 2 personality ptr @__gxx_personality_v0 {
  %2 = getelementptr inbounds nuw i8, ptr %0, i64 728
  %3 = load ptr, ptr %2, align 8, !tbaa !232
  %.not = icmp eq ptr %3, null
  br i1 %.not, label %5, label %4

4:                                                ; preds = %1
  invoke void @IDAFree(ptr noundef nonnull %2)
          to label %5 unwind label %22

5:                                                ; preds = %4, %1
  %6 = getelementptr inbounds nuw i8, ptr %0, i64 384
  %7 = load ptr, ptr %6, align 8, !tbaa !236
  %.not3 = icmp eq ptr %7, null
  br i1 %.not3, label %9, label %8

8:                                                ; preds = %5
  invoke void @N_VDestroy_Serial(ptr noundef nonnull %7)
          to label %9 unwind label %22

9:                                                ; preds = %8, %5
  %10 = getelementptr inbounds nuw i8, ptr %0, i64 408
  %11 = load ptr, ptr %10, align 8, !tbaa !270
  %.not4 = icmp eq ptr %11, null
  br i1 %.not4, label %13, label %12

12:                                               ; preds = %9
  invoke void @N_VDestroy_Serial(ptr noundef nonnull %11)
          to label %13 unwind label %22

13:                                               ; preds = %12, %9
  %14 = getelementptr inbounds nuw i8, ptr %0, i64 712
  %15 = load i32, ptr %14, align 8, !tbaa !292
  %16 = icmp sgt i32 %15, -1
  br i1 %16, label %17, label %21

17:                                               ; preds = %13
  %18 = getelementptr inbounds nuw i8, ptr %0, i64 720
  %19 = load ptr, ptr %18, align 8, !tbaa !201
  %20 = getelementptr inbounds nuw i8, ptr %19, i64 2168
  invoke void @_ZNK6casadi6Linsol7releaseEi(ptr noundef nonnull align 8 dereferenceable(8) %20, i32 noundef %15)
          to label %21 unwind label %22

21:                                               ; preds = %17, %13
  tail call void @_ZN6casadi14SundialsMemoryD2Ev(ptr noundef nonnull align 8 dereferenceable(716) %0) #28
  ret void

22:                                               ; preds = %17, %12, %8, %4
  %23 = landingpad { ptr, i32 }
          catch ptr null
  %24 = extractvalue { ptr, i32 } %23, 0
  tail call void @__clang_call_terminate(ptr %24) #31
  unreachable
}